; Function Attrs: mustprogress uwtable
define hidden void @_ZN4cvc58internal6theory11quantifiers11SygusUnifRl16DecisionTreeInfo10extractSolENS0_12NodeTemplateILb1EEERSt3mapIS6_S6_St4lessIS6_ESaISt4pairIKS6_S6_EEE(ptr dead_on_unwind noalias writable writeonly sret(%"class.cvc5::internal::NodeTemplate") align 8 captures(none) %0, ptr noundef nonnull align 8 dereferenceable(432) %1, ptr noundef readonly captures(none) %2, ptr noundef nonnull align 8 dereferenceable(48) %3) local_unnamed_addr #3 align 2 personality ptr @__gxx_personality_v0 {
  %5 = alloca %"class.cvc5::internal::NodeTemplate", align 8
  %6 = load ptr, ptr %1, align 8, !tbaa !467
  %7 = getelementptr inbounds nuw i8, ptr %6, i64 209
  %8 = load i8, ptr %7, align 1, !tbaa !54, !range !302, !noundef !303
  %9 = trunc nuw i8 %8 to i1
  br i1 %9, label %10, label %11

10:                                               ; preds = %4
  tail call void @_ZN4cvc58internal6theory11quantifiers11SygusUnifRl16DecisionTreeInfo25recomputeSolHeuristicallyERSt3mapINS0_12NodeTemplateILb1EEES7_St4lessIS7_ESaISt4pairIKS7_S7_EEE(ptr noundef nonnull align 8 dereferenceable(432) %1, ptr noundef nonnull align 8 dereferenceable(48) %3)
  br label %11

11:                                               ; preds = %10, %4
  %12 = getelementptr inbounds nuw i8, ptr %1, i64 264
  %13 = getelementptr inbounds nuw i8, ptr %1, i64 128
  %14 = load ptr, ptr %13, align 8, !tbaa !501
  %15 = load ptr, ptr %2, align 8, !tbaa !65
  store ptr %15, ptr %5, align 8, !tbaa !65
  %16 = load i64, ptr %15, align 8
  %17 = lshr i64 %16, 40
  %18 = trunc nuw nsw i64 %17 to i32
  %19 = and i32 %18, 1048575
  %20 = icmp samesign ult i32 %19, 1048574
  br i1 %20, label %21, label %26, !prof !72

21:                                               ; preds = %11
  %22 = add i64 %16, 1099511627776
  %23 = and i64 %22, 1152920405095219200
  %24 = and i64 %16, -1152920405095219201
  %25 = or disjoint i64 %23, %24
  store i64 %25, ptr %15, align 8
  br label %_ZN4cvc58internal12NodeTemplateILb1EEC2ERKS2_.exit

26:                                               ; preds = %11
  %27 = icmp eq i32 %19, 1048574
  br i1 %27, label %28, label %_ZN4cvc58internal12NodeTemplateILb1EEC2ERKS2_.exit, !prof !68

28:                                               ; preds = %26
  %29 = or i64 %16, 1152920405095219200
  store i64 %29, ptr %15, align 8
  tail call void @_ZN4cvc58internal4expr9NodeValue20markRefCountMaxedOutEv(ptr noundef nonnull align 8 dereferenceable(24) %15)
  br label %_ZN4cvc58internal12NodeTemplateILb1EEC2ERKS2_.exit

_ZN4cvc58internal12NodeTemplateILb1EEC2ERKS2_.exit: ; preds = %21, %26, %28
  invoke void @_ZN4cvc58internal6theory11quantifiers11SygusUnifRl16DecisionTreeInfo14PointSeparator10extractSolEPNS0_11NodeManagerENS0_12NodeTemplateILb1EEERSt3mapIS9_S9_St4lessIS9_ESaISt4pairIKS9_S9_EEE(ptr dead_on_unwind writable sret(%"class.cvc5::internal::NodeTemplate") align 8 %0, ptr noundef nonnull align 8 dereferenceable(168) %12, ptr noundef %14, ptr noundef nonnull %5, ptr noundef nonnull align 8 dereferenceable(48) %3)
          to label %30 unwind label %43

30:                                               ; preds = %_ZN4cvc58internal12NodeTemplateILb1EEC2ERKS2_.exit
  %31 = load i64, ptr %15, align 8
  %32 = and i64 %31, 1152920405095219200
  %.not.i.i = icmp eq i64 %32, 1152920405095219200
  br i1 %.not.i.i, label %_ZN4cvc58internal12NodeTemplateILb1EED2Ev.exit, label %33, !prof !68

33:                                               ; preds = %30
  %34 = add i64 %31, 1152920405095219200
  %35 = and i64 %34, 1152920405095219200
  %36 = and i64 %31, -1152920405095219201
  %37 = or disjoint i64 %35, %36
  store i64 %37, ptr %15, align 8
  %38 = icmp eq i64 %35, 0
  br i1 %38, label %39, label %_ZN4cvc58internal12NodeTemplateILb1EED2Ev.exit, !prof !68

39:                                               ; preds = %33
  invoke void @_ZN4cvc58internal4expr9NodeValue15markForDeletionEv(ptr noundef nonnull align 8 dereferenceable(24) %15)
          to label %_ZN4cvc58internal12NodeTemplateILb1EED2Ev.exit unwind label %40

40:                                               ; preds = %39
  %41 = landingpad { ptr, i32 }
          catch ptr null
  %42 = extractvalue { ptr, i32 } %41, 0
  tail call void @__clang_call_terminate(ptr %42) #27
  unreachable

_ZN4cvc58internal12NodeTemplateILb1EED2Ev.exit:   ; preds = %30, %33, %39
  ret void

43:                                               ; preds = %_ZN4cvc58internal12NodeTemplateILb1EEC2ERKS2_.exit
  %44 = landingpad { ptr, i32 }
          cleanup
  call void @_ZN4cvc58internal12NodeTemplateILb1EED2Ev(ptr noundef nonnull align 8 dereferenceable(8) %5) #29
  resume { ptr, i32 } %44
}